; Function Attrs: mustprogress uwtable
define internal void @"_ZNSt17_Function_handlerIFviPN5faiss5IndexEEZNKS0_14ParameterSpace19set_index_parameterES2_RKNSt7__cxx1112basic_stringIcSt11char_traitsIcESaIcEEEdE3$_0E9_M_invokeERKSt9_Any_dataOiOS2_"(ptr nocapture noundef nonnull readonly align 8 dereferenceable(16) %0, ptr nocapture nonnull readonly align 4 %1, ptr nocapture noundef nonnull readonly align 8 dereferenceable(8) %2) #0 align 2 {
  %.val = load ptr, ptr %0, align 8
  %.val4 = load ptr, ptr %2, align 8
  %4 = load ptr, ptr %.val, align 8
  %5 = getelementptr inbounds i8, ptr %.val, i64 8
  %6 = getelementptr inbounds i8, ptr %.val, i64 40
  %7 = load double, ptr %6, align 8
  %8 = load ptr, ptr %4, align 8
  %9 = getelementptr inbounds i8, ptr %8, i64 8
  %10 = load ptr, ptr %9, align 8
  tail call void %10(ptr noundef nonnull align 8 dereferenceable(64) %4, ptr noundef %.val4, ptr noundef nonnull align 8 dereferenceable(32) %5, double noundef %7)
  ret void
}